target datalayout = "e-m:e-p270:32:32-p271:32:32-p272:64:64-i64:64-i128:128-f80:128-n8:16:32:64-S128"
target triple = "x86_64-pc-linux-gnu"

; Function Attrs: nounwind uwtable
define ptr @php_load_shlib(ptr noundef %0, ptr noundef %1) #0 {
  %3 = alloca ptr, align 8
  %4 = alloca ptr, align 8
  %5 = alloca ptr, align 8
  %6 = alloca ptr, align 8
  store ptr %0, ptr %3, align 8
  store ptr %1, ptr %4, align 8
  %7 = load ptr, ptr %3, align 8
  %8 = call ptr @dlopen(ptr noundef %7, i32 noundef 265) #5
  store ptr %8, ptr %5, align 8
  %9 = load ptr, ptr %5, align 8
  %10 = icmp ne ptr %9, null
  br i1 %10, label %17, label %11

11:                                               ; preds = %2
  %12 = call ptr @dlerror() #5
  store ptr %12, ptr %6, align 8
  %13 = load ptr, ptr %6, align 8
  %14 = call noalias ptr @_estrdup(ptr noundef %13)
  %15 = load ptr, ptr %4, align 8
  store ptr %14, ptr %15, align 8
  %16 = call ptr @dlerror() #5
  br label %17

17:                                               ; preds = %11, %2
  %18 = load ptr, ptr %5, align 8
  ret ptr %18
}