; Function Attrs: nounwind uwtable
define ptr @php_load_shlib(ptr noundef %0, ptr nocapture noundef writeonly %1) local_unnamed_addr #0 {
  %3 = tail call ptr @dlopen(ptr noundef %0, i32 noundef 265) #4
  %.not = icmp eq ptr %3, null
  br i1 %.not, label %4, label %8

4:                                                ; preds = %2
  %5 = tail call ptr @dlerror() #4
  %6 = tail call noalias ptr @_estrdup(ptr noundef %5) #4
  store ptr %6, ptr %1, align 8
  %7 = tail call ptr @dlerror() #4
  br label %8

8:                                                ; preds = %4, %2
  ret ptr %3
}